; Function Attrs: mustprogress uwtable
define dso_local noundef i64 @_ZNK11conformance10FailureSet12ByteSizeLongEv(ptr noundef nonnull align 8 dereferenceable(48) %this) unnamed_addr #3 align 2 personality ptr @__gxx_personality_v0 {
entry:
  %failure_ = getelementptr inbounds i8, ptr %this, i64 16
  %call = tail call noundef i32 @_ZNK6google8protobuf16RepeatedPtrFieldINSt7__cxx1112basic_stringIcSt11char_traitsIcESaIcEEEE4sizeEv(ptr noundef nonnull align 8 dereferenceable(24) %failure_)
  %conv.i = zext i32 %call to i64
  %call4 = tail call noundef i32 @_ZNK6google8protobuf16RepeatedPtrFieldINSt7__cxx1112basic_stringIcSt11char_traitsIcESaIcEEEE4sizeEv(ptr noundef nonnull align 8 dereferenceable(24) %failure_)
  %cmp9 = icmp sgt i32 %call4, 0
  br i1 %cmp9, label %for.body, label %for.end

for.body:                                         ; preds = %entry, %for.body
  %total_size.011 = phi i64 [ %add8, %for.body ], [ %conv.i, %entry ]
  %i.010 = phi i32 [ %inc, %for.body ], [ 0, %entry ]
  %call6 = tail call noundef nonnull align 8 dereferenceable(32) ptr @_ZNK6google8protobuf16RepeatedPtrFieldINSt7__cxx1112basic_stringIcSt11char_traitsIcESaIcEEEE3GetEi(ptr noundef nonnull align 8 dereferenceable(24) %failure_, i32 noundef %i.010)
  %_M_string_length.i.i = getelementptr inbounds i8, ptr %call6, i64 8
  %0 = load i64, ptr %_M_string_length.i.i, align 8
  %conv.i.i = trunc i64 %0 to i32
  %or.i.i.i = or i32 %conv.i.i, 1
  %1 = tail call i32 @llvm.ctlz.i32(i32 %or.i.i.i, i1 true), !range !9
  %xor.i.i.i.i = xor i32 %1, 31
  %mul.i.i.i = mul nuw nsw i32 %xor.i.i.i.i, 9
  %add.i.i.i = add nuw nsw i32 %mul.i.i.i, 73
  %div1.i.i.i = lshr i32 %add.i.i.i, 6
  %conv.i.i.i = zext nneg i32 %div1.i.i.i to i64
  %add.i.i = add i64 %0, %total_size.011
  %add8 = add i64 %add.i.i, %conv.i.i.i
  %inc = add nuw nsw i32 %i.010, 1
  %exitcond.not = icmp eq i32 %inc, %call4
  br i1 %exitcond.not, label %for.end, label %for.body, !llvm.loop !10

for.end:                                          ; preds = %for.body, %entry
  %total_size.0.lcssa = phi i64 [ %conv.i, %entry ], [ %add8, %for.body ]
  %_internal_metadata_ = getelementptr inbounds i8, ptr %this, i64 8
  %2 = load ptr, ptr %_internal_metadata_, align 8
  %3 = ptrtoint ptr %2 to i64
  %conv.i7 = and i64 %3, 1
  %cmp.i.not = icmp eq i64 %conv.i7, 0
  br i1 %cmp.i.not, label %if.end, label %if.then

if.then:                                          ; preds = %for.end
  %_cached_size_ = getelementptr inbounds i8, ptr %this, i64 40
  %call11 = tail call noundef i64 @_ZN6google8protobuf8internal24ComputeUnknownFieldsSizeERKNS1_16InternalMetadataEmPNS1_10CachedSizeE(ptr noundef nonnull align 8 dereferenceable(8) %_internal_metadata_, i64 noundef %total_size.0.lcssa, ptr noundef nonnull %_cached_size_)
  br label %return

if.end:                                           ; preds = %for.end
  %conv.i8 = trunc i64 %total_size.0.lcssa to i32
  %_cached_size_.i = getelementptr inbounds i8, ptr %this, i64 40
  store atomic i32 %conv.i8, ptr %_cached_size_.i monotonic, align 8
  br label %return

return:                                           ; preds = %if.end, %if.then
  %retval.0 = phi i64 [ %call11, %if.then ], [ %total_size.0.lcssa, %if.end ]
  ret i64 %retval.0
}